target datalayout = "e-m:e-p270:32:32-p271:32:32-p272:64:64-i64:64-i128:128-f80:128-n8:16:32:64-S128"
target triple = "x86_64-pc-linux-gnu"

%struct.__va_list_tag = type { i32, i32, ptr, ptr }
%struct.integerARG = type { i32, i64, i64 }

; Function Attrs: nounwind uwtable
define internal ptr @Make_Integer_Type(ptr noundef %0) #0 {
  %2 = alloca ptr, align 8
  %3 = alloca ptr, align 8
  store ptr %0, ptr %2, align 8, !tbaa !4
  call void @llvm.lifetime.start.p0(i64 8, ptr %3) #8
  %4 = call noalias ptr @malloc(i64 noundef 24) #9
  store ptr %4, ptr %3, align 8, !tbaa !9
  %5 = load ptr, ptr %3, align 8, !tbaa !9
  %6 = icmp ne ptr %5, null
  br i1 %6, label %7, label %65

7:                                                ; preds = %1
  %8 = load ptr, ptr %2, align 8, !tbaa !4
  %9 = getelementptr inbounds [1 x %struct.__va_list_tag], ptr %8, i64 0, i64 0
  %10 = getelementptr inbounds nuw %struct.__va_list_tag, ptr %9, i32 0, i32 0
  %11 = load i32, ptr %10, align 8
  %12 = icmp ule i32 %11, 40
  br i1 %12, label %13, label %18

13:                                               ; preds = %7
  %14 = getelementptr inbounds nuw %struct.__va_list_tag, ptr %9, i32 0, i32 3
  %15 = load ptr, ptr %14, align 8
  %16 = getelementptr i8, ptr %15, i32 %11
  %17 = add i32 %11, 8
  store i32 %17, ptr %10, align 8
  br label %22

18:                                               ; preds = %7
  %19 = getelementptr inbounds nuw %struct.__va_list_tag, ptr %9, i32 0, i32 2
  %20 = load ptr, ptr %19, align 8
  %21 = getelementptr i8, ptr %20, i32 8
  store ptr %21, ptr %19, align 8
  br label %22

22:                                               ; preds = %18, %13
  %23 = phi ptr [ %16, %13 ], [ %20, %18 ]
  %24 = load i32, ptr %23, align 4, !tbaa !10
  %25 = load ptr, ptr %3, align 8, !tbaa !9
  %26 = getelementptr inbounds nuw %struct.integerARG, ptr %25, i32 0, i32 0
  store i32 %24, ptr %26, align 8, !tbaa !12
  %27 = load ptr, ptr %2, align 8, !tbaa !4
  %28 = getelementptr inbounds [1 x %struct.__va_list_tag], ptr %27, i64 0, i64 0
  %29 = getelementptr inbounds nuw %struct.__va_list_tag, ptr %28, i32 0, i32 0
  %30 = load i32, ptr %29, align 8
  %31 = icmp ule i32 %30, 40
  br i1 %31, label %32, label %37

32:                                               ; preds = %22
  %33 = getelementptr inbounds nuw %struct.__va_list_tag, ptr %28, i32 0, i32 3
  %34 = load ptr, ptr %33, align 8
  %35 = getelementptr i8, ptr %34, i32 %30
  %36 = add i32 %30, 8
  store i32 %36, ptr %29, align 8
  br label %41

37:                                               ; preds = %22
  %38 = getelementptr inbounds nuw %struct.__va_list_tag, ptr %28, i32 0, i32 2
  %39 = load ptr, ptr %38, align 8
  %40 = getelementptr i8, ptr %39, i32 8
  store ptr %40, ptr %38, align 8
  br label %41

41:                                               ; preds = %37, %32
  %42 = phi ptr [ %35, %32 ], [ %39, %37 ]
  %43 = load i64, ptr %42, align 8, !tbaa !15
  %44 = load ptr, ptr %3, align 8, !tbaa !9
  %45 = getelementptr inbounds nuw %struct.integerARG, ptr %44, i32 0, i32 1
  store i64 %43, ptr %45, align 8, !tbaa !16
  %46 = load ptr, ptr %2, align 8, !tbaa !4
  %47 = getelementptr inbounds [1 x %struct.__va_list_tag], ptr %46, i64 0, i64 0
  %48 = getelementptr inbounds nuw %struct.__va_list_tag, ptr %47, i32 0, i32 0
  %49 = load i32, ptr %48, align 8
  %50 = icmp ule i32 %49, 40
  br i1 %50, label %51, label %56

51:                                               ; preds = %41
  %52 = getelementptr inbounds nuw %struct.__va_list_tag, ptr %47, i32 0, i32 3
  %53 = load ptr, ptr %52, align 8
  %54 = getelementptr i8, ptr %53, i32 %49
  %55 = add i32 %49, 8
  store i32 %55, ptr %48, align 8
  br label %60

56:                                               ; preds = %41
  %57 = getelementptr inbounds nuw %struct.__va_list_tag, ptr %47, i32 0, i32 2
  %58 = load ptr, ptr %57, align 8
  %59 = getelementptr i8, ptr %58, i32 8
  store ptr %59, ptr %57, align 8
  br label %60

60:                                               ; preds = %56, %51
  %61 = phi ptr [ %54, %51 ], [ %58, %56 ]
  %62 = load i64, ptr %61, align 8, !tbaa !15
  %63 = load ptr, ptr %3, align 8, !tbaa !9
  %64 = getelementptr inbounds nuw %struct.integerARG, ptr %63, i32 0, i32 2
  store i64 %62, ptr %64, align 8, !tbaa !17
  br label %65

65:                                               ; preds = %60, %1
  %66 = load ptr, ptr %3, align 8, !tbaa !9
  call void @llvm.lifetime.end.p0(i64 8, ptr %3) #8
  ret ptr %66
}