; Function Attrs: mustprogress nofree nounwind willreturn uwtable
define internal noalias noundef ptr @Make_Integer_Type(ptr noundef captures(none) %0) #0 {
  %2 = tail call noalias dereferenceable_or_null(24) ptr @malloc(i64 noundef 24) #13
  %.not = icmp eq ptr %2, null
  br i1 %.not, label %46, label %3

3:                                                ; preds = %1
  %4 = load i32, ptr %0, align 8
  %5 = icmp ult i32 %4, 41
  br i1 %5, label %10, label %.thread

.thread:                                          ; preds = %3
  %6 = getelementptr inbounds nuw i8, ptr %0, i64 8
  %7 = load ptr, ptr %6, align 8
  %8 = getelementptr i8, ptr %7, i64 8
  store ptr %8, ptr %6, align 8
  %9 = load i32, ptr %7, align 4, !tbaa !4
  store i32 %9, ptr %2, align 8, !tbaa !8
  br label %.thread14

10:                                               ; preds = %3
  %11 = getelementptr inbounds nuw i8, ptr %0, i64 16
  %12 = load ptr, ptr %11, align 8
  %13 = zext nneg i32 %4 to i64
  %14 = getelementptr i8, ptr %12, i64 %13
  %15 = add nuw nsw i32 %4, 8
  store i32 %15, ptr %0, align 8
  %16 = load i32, ptr %14, align 4, !tbaa !4
  store i32 %16, ptr %2, align 8, !tbaa !8
  %17 = icmp ult i32 %4, 33
  br i1 %17, label %23, label %.thread14

.thread14:                                        ; preds = %10, %.thread
  %18 = getelementptr inbounds nuw i8, ptr %0, i64 8
  %19 = load ptr, ptr %18, align 8
  %20 = getelementptr i8, ptr %19, i64 8
  store ptr %20, ptr %18, align 8
  %21 = load i64, ptr %19, align 8, !tbaa !11
  %22 = getelementptr inbounds nuw i8, ptr %2, i64 8
  store i64 %21, ptr %22, align 8, !tbaa !12
  br label %38

23:                                               ; preds = %10
  %24 = getelementptr inbounds nuw i8, ptr %0, i64 16
  %25 = load ptr, ptr %24, align 8
  %26 = zext nneg i32 %15 to i64
  %27 = getelementptr i8, ptr %25, i64 %26
  %28 = add nuw nsw i32 %4, 16
  store i32 %28, ptr %0, align 8
  %29 = load i64, ptr %27, align 8, !tbaa !11
  %30 = getelementptr inbounds nuw i8, ptr %2, i64 8
  store i64 %29, ptr %30, align 8, !tbaa !12
  %31 = icmp ult i32 %4, 25
  br i1 %31, label %32, label %38

32:                                               ; preds = %23
  %33 = getelementptr inbounds nuw i8, ptr %0, i64 16
  %34 = load ptr, ptr %33, align 8
  %35 = zext nneg i32 %28 to i64
  %36 = getelementptr i8, ptr %34, i64 %35
  %37 = add nuw nsw i32 %4, 24
  store i32 %37, ptr %0, align 8
  br label %42

38:                                               ; preds = %.thread14, %23
  %39 = getelementptr inbounds nuw i8, ptr %0, i64 8
  %40 = load ptr, ptr %39, align 8
  %41 = getelementptr i8, ptr %40, i64 8
  store ptr %41, ptr %39, align 8
  br label %42

42:                                               ; preds = %38, %32
  %43 = phi ptr [ %36, %32 ], [ %40, %38 ]
  %44 = load i64, ptr %43, align 8, !tbaa !11
  %45 = getelementptr inbounds nuw i8, ptr %2, i64 16
  store i64 %44, ptr %45, align 8, !tbaa !13
  br label %46

46:                                               ; preds = %42, %1
  ret ptr %2
}